target datalayout = "e-m:e-p270:32:32-p271:32:32-p272:64:64-i64:64-i128:128-f80:128-n8:16:32:64-S128"
target triple = "x86_64-pc-linux-gnu"

%"class.std::__cxx11::basic_string" = type { %"struct.std::__cxx11::basic_string<char>::_Alloc_hider", i64, %union.anon }
%"struct.std::__cxx11::basic_string<char>::_Alloc_hider" = type { ptr }
%union.anon = type { i64, [8 x i8] }
%"class.std::vector.3" = type { %"struct.std::_Vector_base.4" }
%"struct.std::_Vector_base.4" = type { %"struct.std::_Vector_base<unsigned char, std::allocator<unsigned char>>::_Vector_impl" }
%"struct.std::_Vector_base<unsigned char, std::allocator<unsigned char>>::_Vector_impl" = type { %"struct.std::_Vector_base<unsigned char, std::allocator<unsigned char>>::_Vector_impl_data" }
%"struct.std::_Vector_base<unsigned char, std::allocator<unsigned char>>::_Vector_impl_data" = type { ptr, ptr, ptr }
%"class.cv::QRCodeDecoderImpl" = type { %"class.cv::QRCodeDecoder.base", i32, i32, %"struct.cv::QRCodeDecoderImpl::Bitstream" }
%"class.cv::QRCodeDecoder.base" = type <{ ptr, i32, i32, i8, i8, i8 }>
%"struct.cv::QRCodeDecoderImpl::Bitstream" = type { %"class.std::vector.3", i32, i64 }

@_ZZN2cv17QRCodeDecoderImpl11decodeAlphaERNSt7__cxx1112basic_stringIcSt11char_traitsIcESaIcEEEE3map = internal constant [45 x i8] c"0123456789ABCDEFGHIJKLMNOPQRSTUVWXYZ $%*+-./:", align 16

; Function Attrs: mustprogress nounwind uwtable
define linkonce_odr hidden noundef ptr @_ZNSt19__ptr_traits_ptr_toIPKcS0_Lb0EE10pointer_toERS0_(ptr noundef nonnull align 1 dereferenceable(1) %0) #0 comdat align 2 {
  %2 = alloca ptr, align 8
  store ptr %0, ptr %2, align 8, !tbaa !27
  %3 = load ptr, ptr %2, align 8, !tbaa !27
  ret ptr %3
}

; Function Attrs: mustprogress nounwind uwtable
define available_externally noundef ptr @_ZNKSt7__cxx1112basic_stringIcSt11char_traitsIcESaIcEE13_M_local_dataEv(ptr noundef nonnull align 8 dereferenceable(32) %0) #0 align 2 {
  %2 = alloca ptr, align 8
  store ptr %0, ptr %2, align 8, !tbaa !25
  %3 = load ptr, ptr %2, align 8
  %4 = getelementptr inbounds nuw %"class.std::__cxx11::basic_string", ptr %3, i32 0, i32 2
  %5 = getelementptr inbounds [16 x i8], ptr %4, i64 0, i64 0
  %6 = call noundef ptr @_ZNSt19__ptr_traits_ptr_toIPKcS0_Lb0EE10pointer_toERS0_(ptr noundef nonnull align 1 dereferenceable(1) %5) #21
  ret ptr %6
}

; Function Attrs: mustprogress nounwind uwtable
define available_externally void @_ZNSt7__cxx1112basic_stringIcSt11char_traitsIcESaIcEE9_M_lengthEm(ptr noundef nonnull align 8 dereferenceable(32) %0, i64 noundef %1) #0 align 2 {
  %3 = alloca ptr, align 8
  %4 = alloca i64, align 8
  store ptr %0, ptr %3, align 8, !tbaa !25
  store i64 %1, ptr %4, align 8, !tbaa !82
  %5 = load ptr, ptr %3, align 8
  %6 = load i64, ptr %4, align 8, !tbaa !82
  %7 = getelementptr inbounds nuw %"class.std::__cxx11::basic_string", ptr %5, i32 0, i32 1
  store i64 %6, ptr %7, align 8, !tbaa !75
  ret void
}

; Function Attrs: noinline noreturn nounwind uwtable
define linkonce_odr hidden void @__clang_call_terminate(ptr noundef %0) #13 comdat {
  %2 = call ptr @__cxa_begin_catch(ptr %0) #21
  call void @_ZSt9terminatev() #20
  unreachable
}

; Function Attrs: mustprogress uwtable
define available_externally noundef zeroext i1 @_ZNKSt7__cxx1112basic_stringIcSt11char_traitsIcESaIcEE11_M_is_localEv(ptr noundef nonnull align 8 dereferenceable(32) %0) #2 align 2 {
  %2 = alloca i1, align 1
  %3 = alloca ptr, align 8
  store ptr %0, ptr %3, align 8, !tbaa !25
  %4 = load ptr, ptr %3, align 8
  %5 = call noundef ptr @_ZNKSt7__cxx1112basic_stringIcSt11char_traitsIcESaIcEE7_M_dataEv(ptr noundef nonnull align 8 dereferenceable(32) %4)
  %6 = call noundef ptr @_ZNKSt7__cxx1112basic_stringIcSt11char_traitsIcESaIcEE13_M_local_dataEv(ptr noundef nonnull align 8 dereferenceable(32) %4)
  %7 = icmp eq ptr %5, %6
  br i1 %7, label %8, label %14

8:                                                ; preds = %1
  %9 = getelementptr inbounds nuw %"class.std::__cxx11::basic_string", ptr %4, i32 0, i32 1
  %10 = load i64, ptr %9, align 8, !tbaa !75
  %11 = icmp ugt i64 %10, 15
  br i1 %11, label %12, label %13

12:                                               ; preds = %8
  unreachable

13:                                               ; preds = %8
  store i1 true, ptr %2, align 1
  br label %15

14:                                               ; preds = %1
  store i1 false, ptr %2, align 1
  br label %15

15:                                               ; preds = %14, %13
  %16 = load i1, ptr %2, align 1
  ret i1 %16
}

; Function Attrs: mustprogress uwtable
define available_externally void @_ZNSt7__cxx1112basic_stringIcSt11char_traitsIcESaIcEE13_M_set_lengthEm(ptr noundef nonnull align 8 dereferenceable(32) %0, i64 noundef %1) #2 align 2 {
  %3 = alloca ptr, align 8
  %4 = alloca i64, align 8
  %5 = alloca i8, align 1
  store ptr %0, ptr %3, align 8, !tbaa !25
  store i64 %1, ptr %4, align 8, !tbaa !82
  %6 = load ptr, ptr %3, align 8
  %7 = load i64, ptr %4, align 8, !tbaa !82
  call void @_ZNSt7__cxx1112basic_stringIcSt11char_traitsIcESaIcEE9_M_lengthEm(ptr noundef nonnull align 8 dereferenceable(32) %6, i64 noundef %7)
  %8 = call noundef ptr @_ZNKSt7__cxx1112basic_stringIcSt11char_traitsIcESaIcEE7_M_dataEv(ptr noundef nonnull align 8 dereferenceable(32) %6)
  %9 = load i64, ptr %4, align 8, !tbaa !82
  %10 = getelementptr inbounds nuw i8, ptr %8, i64 %9
  call void @llvm.lifetime.start.p0(i64 1, ptr %5) #21
  store i8 0, ptr %5, align 1, !tbaa !83
  call void @_ZNSt11char_traitsIcE6assignERcRKc(ptr noundef nonnull align 1 dereferenceable(1) %10, ptr noundef nonnull align 1 dereferenceable(1) %5) #21
  call void @llvm.lifetime.end.p0(i64 1, ptr %5) #21
  ret void
}

; Function Attrs: mustprogress nounwind uwtable
define linkonce_odr hidden void @_ZNSt11char_traitsIcE6assignERcRKc(ptr noundef nonnull align 1 dereferenceable(1) %0, ptr noundef nonnull align 1 dereferenceable(1) %1) #0 comdat align 2 {
  %3 = alloca ptr, align 8
  %4 = alloca ptr, align 8
  store ptr %0, ptr %3, align 8, !tbaa !27
  store ptr %1, ptr %4, align 8, !tbaa !27
  %5 = load ptr, ptr %4, align 8, !tbaa !27
  %6 = load i8, ptr %5, align 1, !tbaa !83
  %7 = load ptr, ptr %3, align 8, !tbaa !27
  store i8 %6, ptr %7, align 1, !tbaa !83
  ret void
}

; Function Attrs: mustprogress nounwind uwtable
define available_externally noundef ptr @_ZNKSt7__cxx1112basic_stringIcSt11char_traitsIcESaIcEE7_M_dataEv(ptr noundef nonnull align 8 dereferenceable(32) %0) #0 align 2 {
  %2 = alloca ptr, align 8
  store ptr %0, ptr %2, align 8, !tbaa !25
  %3 = load ptr, ptr %2, align 8
  %4 = getelementptr inbounds nuw %"class.std::__cxx11::basic_string", ptr %3, i32 0, i32 0
  %5 = getelementptr inbounds nuw %"struct.std::__cxx11::basic_string<char>::_Alloc_hider", ptr %4, i32 0, i32 0
  %6 = load ptr, ptr %5, align 8, !tbaa !418
  ret ptr %6
}

; Function Attrs: mustprogress nounwind uwtable
define available_externally noundef i64 @_ZNKSt7__cxx1112basic_stringIcSt11char_traitsIcESaIcEE8capacityEv(ptr noundef nonnull align 8 dereferenceable(32) %0) #0 align 2 personality ptr @__gxx_personality_v0 {
  %2 = alloca ptr, align 8
  store ptr %0, ptr %2, align 8, !tbaa !25
  %3 = load ptr, ptr %2, align 8
  %4 = invoke noundef zeroext i1 @_ZNKSt7__cxx1112basic_stringIcSt11char_traitsIcESaIcEE11_M_is_localEv(ptr noundef nonnull align 8 dereferenceable(32) %3)
          to label %5 unwind label %12

5:                                                ; preds = %1
  br i1 %4, label %6, label %7

6:                                                ; preds = %5
  br label %10

7:                                                ; preds = %5
  %8 = getelementptr inbounds nuw %"class.std::__cxx11::basic_string", ptr %3, i32 0, i32 2
  %9 = load i64, ptr %8, align 8, !tbaa !83
  br label %10

10:                                               ; preds = %7, %6
  %11 = phi i64 [ 15, %6 ], [ %9, %7 ]
  ret i64 %11

12:                                               ; preds = %1
  %13 = landingpad { ptr, i32 }
          catch ptr null
  %14 = extractvalue { ptr, i32 } %13, 0
  call void @__clang_call_terminate(ptr %14) #20
  unreachable
}

; Function Attrs: mustprogress nounwind uwtable
define available_externally noundef i64 @_ZNKSt7__cxx1112basic_stringIcSt11char_traitsIcESaIcEE4sizeEv(ptr noundef nonnull align 8 dereferenceable(32) %0) #0 align 2 {
  %2 = alloca ptr, align 8
  store ptr %0, ptr %2, align 8, !tbaa !25
  %3 = load ptr, ptr %2, align 8
  %4 = getelementptr inbounds nuw %"class.std::__cxx11::basic_string", ptr %3, i32 0, i32 1
  %5 = load i64, ptr %4, align 8, !tbaa !75
  ret i64 %5
}

; Function Attrs: mustprogress uwtable
define available_externally void @_ZNSt7__cxx1112basic_stringIcSt11char_traitsIcESaIcEE9push_backEc(ptr noundef nonnull align 8 dereferenceable(32) %0, i8 noundef signext %1) #2 align 2 {
  %3 = alloca ptr, align 8
  %4 = alloca i8, align 1
  %5 = alloca i64, align 8
  store ptr %0, ptr %3, align 8, !tbaa !25
  store i8 %1, ptr %4, align 1, !tbaa !83
  %6 = load ptr, ptr %3, align 8
  call void @llvm.lifetime.start.p0(i64 8, ptr %5) #21
  %7 = call noundef i64 @_ZNKSt7__cxx1112basic_stringIcSt11char_traitsIcESaIcEE4sizeEv(ptr noundef nonnull align 8 dereferenceable(32) %6) #21
  store i64 %7, ptr %5, align 8, !tbaa !82
  %8 = load i64, ptr %5, align 8, !tbaa !82
  %9 = add i64 %8, 1
  %10 = call noundef i64 @_ZNKSt7__cxx1112basic_stringIcSt11char_traitsIcESaIcEE8capacityEv(ptr noundef nonnull align 8 dereferenceable(32) %6) #21
  %11 = icmp ugt i64 %9, %10
  br i1 %11, label %12, label %14

12:                                               ; preds = %2
  %13 = load i64, ptr %5, align 8, !tbaa !82
  call void @_ZNSt7__cxx1112basic_stringIcSt11char_traitsIcESaIcEE9_M_mutateEmmPKcm(ptr noundef nonnull align 8 dereferenceable(32) %6, i64 noundef %13, i64 noundef 0, ptr noundef null, i64 noundef 1)
  br label %14

14:                                               ; preds = %12, %2
  %15 = call noundef ptr @_ZNKSt7__cxx1112basic_stringIcSt11char_traitsIcESaIcEE7_M_dataEv(ptr noundef nonnull align 8 dereferenceable(32) %6)
  %16 = load i64, ptr %5, align 8, !tbaa !82
  %17 = getelementptr inbounds nuw i8, ptr %15, i64 %16
  call void @_ZNSt11char_traitsIcE6assignERcRKc(ptr noundef nonnull align 1 dereferenceable(1) %17, ptr noundef nonnull align 1 dereferenceable(1) %4) #21
  %18 = load i64, ptr %5, align 8, !tbaa !82
  %19 = add i64 %18, 1
  call void @_ZNSt7__cxx1112basic_stringIcSt11char_traitsIcESaIcEE13_M_set_lengthEm(ptr noundef nonnull align 8 dereferenceable(32) %6, i64 noundef %19)
  call void @llvm.lifetime.end.p0(i64 8, ptr %5) #21
  ret void
}

; Function Attrs: mustprogress uwtable
define available_externally noundef nonnull align 8 dereferenceable(32) ptr @_ZNSt7__cxx1112basic_stringIcSt11char_traitsIcESaIcEEpLEc(ptr noundef nonnull align 8 dereferenceable(32) %0, i8 noundef signext %1) #2 align 2 {
  %3 = alloca ptr, align 8
  %4 = alloca i8, align 1
  store ptr %0, ptr %3, align 8, !tbaa !25
  store i8 %1, ptr %4, align 1, !tbaa !83
  %5 = load ptr, ptr %3, align 8
  %6 = load i8, ptr %4, align 1, !tbaa !83
  call void @_ZNSt7__cxx1112basic_stringIcSt11char_traitsIcESaIcEE9push_backEc(ptr noundef nonnull align 8 dereferenceable(32) %5, i8 noundef signext %6)
  ret ptr %5
}

; Function Attrs: mustprogress uwtable
define hidden void @_ZN2cv17QRCodeDecoderImpl11decodeAlphaERNSt7__cxx1112basic_stringIcSt11char_traitsIcESaIcEEE(ptr noundef nonnull align 8 dereferenceable(72) %0, ptr noundef nonnull align 8 dereferenceable(32) %1) #2 align 2 {
  %3 = alloca ptr, align 8
  %4 = alloca ptr, align 8
  %5 = alloca i32, align 4
  %6 = alloca i32, align 4
  %7 = alloca i32, align 4
  %8 = alloca i32, align 4
  store ptr %0, ptr %3, align 8, !tbaa !251
  store ptr %1, ptr %4, align 8, !tbaa !25
  %9 = load ptr, ptr %3, align 8
  call void @llvm.lifetime.start.p0(i64 4, ptr %5) #21
  %10 = getelementptr inbounds nuw %"class.cv::QRCodeDecoderImpl", ptr %9, i32 0, i32 3
  %11 = getelementptr inbounds nuw %"class.cv::QRCodeDecoderImpl", ptr %9, i32 0, i32 2
  %12 = load i32, ptr %11, align 8, !tbaa !254
  %13 = icmp sle i32 %12, 9
  br i1 %13, label %14, label %15

14:                                               ; preds = %2
  br label %20

15:                                               ; preds = %2
  %16 = getelementptr inbounds nuw %"class.cv::QRCodeDecoderImpl", ptr %9, i32 0, i32 2
  %17 = load i32, ptr %16, align 8, !tbaa !254
  %18 = icmp sle i32 %17, 26
  %19 = select i1 %18, i32 11, i32 13
  br label %20

20:                                               ; preds = %15, %14
  %21 = phi i32 [ 9, %14 ], [ %19, %15 ]
  %22 = call noundef i32 @_ZN2cv17QRCodeDecoderImpl9Bitstream4nextEi(ptr noundef nonnull align 8 dereferenceable(40) %10, i32 noundef %21)
  store i32 %22, ptr %5, align 4, !tbaa !29
  call void @llvm.lifetime.start.p0(i64 4, ptr %6) #21
  store i32 0, ptr %6, align 4, !tbaa !29
  br label %23

23:                                               ; preds = %46, %20
  %24 = load i32, ptr %6, align 4, !tbaa !29
  %25 = load i32, ptr %5, align 4, !tbaa !29
  %26 = sdiv i32 %25, 2
  %27 = icmp slt i32 %24, %26
  br i1 %27, label %29, label %28

28:                                               ; preds = %23
  call void @llvm.lifetime.end.p0(i64 4, ptr %6) #21
  br label %49

29:                                               ; preds = %23
  call void @llvm.lifetime.start.p0(i64 4, ptr %7) #21
  %30 = getelementptr inbounds nuw %"class.cv::QRCodeDecoderImpl", ptr %9, i32 0, i32 3
  %31 = call noundef i32 @_ZN2cv17QRCodeDecoderImpl9Bitstream4nextEi(ptr noundef nonnull align 8 dereferenceable(40) %30, i32 noundef 11)
  store i32 %31, ptr %7, align 4, !tbaa !29
  %32 = load i32, ptr %7, align 4, !tbaa !29
  %33 = sdiv i32 %32, 45
  %34 = sext i32 %33 to i64
  %35 = getelementptr inbounds [45 x i8], ptr @_ZZN2cv17QRCodeDecoderImpl11decodeAlphaERNSt7__cxx1112basic_stringIcSt11char_traitsIcESaIcEEEE3map, i64 0, i64 %34
  %36 = load i8, ptr %35, align 1, !tbaa !83
  %37 = load ptr, ptr %4, align 8, !tbaa !25
  %38 = call noundef nonnull align 8 dereferenceable(32) ptr @_ZNSt7__cxx1112basic_stringIcSt11char_traitsIcESaIcEEpLEc(ptr noundef nonnull align 8 dereferenceable(32) %37, i8 noundef signext %36)
  %39 = load i32, ptr %7, align 4, !tbaa !29
  %40 = srem i32 %39, 45
  %41 = sext i32 %40 to i64
  %42 = getelementptr inbounds [45 x i8], ptr @_ZZN2cv17QRCodeDecoderImpl11decodeAlphaERNSt7__cxx1112basic_stringIcSt11char_traitsIcESaIcEEEE3map, i64 0, i64 %41
  %43 = load i8, ptr %42, align 1, !tbaa !83
  %44 = load ptr, ptr %4, align 8, !tbaa !25
  %45 = call noundef nonnull align 8 dereferenceable(32) ptr @_ZNSt7__cxx1112basic_stringIcSt11char_traitsIcESaIcEEpLEc(ptr noundef nonnull align 8 dereferenceable(32) %44, i8 noundef signext %43)
  call void @llvm.lifetime.end.p0(i64 4, ptr %7) #21
  br label %46

46:                                               ; preds = %29
  %47 = load i32, ptr %6, align 4, !tbaa !29
  %48 = add nsw i32 %47, 1
  store i32 %48, ptr %6, align 4, !tbaa !29
  br label %23, !llvm.loop !342

49:                                               ; preds = %28
  %50 = load i32, ptr %5, align 4, !tbaa !29
  %51 = srem i32 %50, 2
  %52 = icmp ne i32 %51, 0
  br i1 %52, label %53, label %62

53:                                               ; preds = %49
  call void @llvm.lifetime.start.p0(i64 4, ptr %8) #21
  %54 = getelementptr inbounds nuw %"class.cv::QRCodeDecoderImpl", ptr %9, i32 0, i32 3
  %55 = call noundef i32 @_ZN2cv17QRCodeDecoderImpl9Bitstream4nextEi(ptr noundef nonnull align 8 dereferenceable(40) %54, i32 noundef 6)
  store i32 %55, ptr %8, align 4, !tbaa !29
  %56 = load i32, ptr %8, align 4, !tbaa !29
  %57 = sext i32 %56 to i64
  %58 = getelementptr inbounds [45 x i8], ptr @_ZZN2cv17QRCodeDecoderImpl11decodeAlphaERNSt7__cxx1112basic_stringIcSt11char_traitsIcESaIcEEEE3map, i64 0, i64 %57
  %59 = load i8, ptr %58, align 1, !tbaa !83
  %60 = load ptr, ptr %4, align 8, !tbaa !25
  %61 = call noundef nonnull align 8 dereferenceable(32) ptr @_ZNSt7__cxx1112basic_stringIcSt11char_traitsIcESaIcEEpLEc(ptr noundef nonnull align 8 dereferenceable(32) %60, i8 noundef signext %59)
  call void @llvm.lifetime.end.p0(i64 4, ptr %8) #21
  br label %62

62:                                               ; preds = %53, %49
  call void @llvm.lifetime.end.p0(i64 4, ptr %5) #21
  ret void
}