; Function Attrs: mustprogress uwtable
define hidden void @_ZN2cv17QRCodeDecoderImpl11decodeAlphaERNSt7__cxx1112basic_stringIcSt11char_traitsIcESaIcEEE(ptr noundef nonnull align 8 dereferenceable(72) %0, ptr noundef nonnull align 8 dereferenceable(32) %1) local_unnamed_addr #4 align 2 personality ptr @__gxx_personality_v0 {
  %3 = getelementptr inbounds nuw i8, ptr %0, i64 32
  %4 = getelementptr inbounds nuw i8, ptr %0, i64 24
  %5 = load i32, ptr %4, align 8, !tbaa !229
  %6 = icmp slt i32 %5, 27
  %7 = select i1 %6, i32 11, i32 13
  %.inv = icmp sgt i32 %5, 9
  %8 = select i1 %.inv, i32 %7, i32 9
  %9 = tail call noundef i32 @_ZN2cv17QRCodeDecoderImpl9Bitstream4nextEi(ptr noundef nonnull align 8 dereferenceable(40) %3, i32 noundef %8)
  %10 = sdiv i32 %9, 2
  %11 = icmp sgt i32 %9, 1
  br i1 %11, label %.lr.ph, label %._crit_edge

.lr.ph:                                           ; preds = %2
  %12 = getelementptr inbounds nuw i8, ptr %1, i64 8
  %13 = getelementptr inbounds nuw i8, ptr %1, i64 16
  br label %15

._crit_edge:                                      ; preds = %_ZNSt7__cxx1112basic_stringIcSt11char_traitsIcESaIcEEpLEc.exit13, %2
  %14 = and i32 %9, 1
  %.not = icmp eq i32 %14, 0
  br i1 %.not, label %75, label %54

15:                                               ; preds = %.lr.ph, %_ZNSt7__cxx1112basic_stringIcSt11char_traitsIcESaIcEEpLEc.exit13
  %.017 = phi i32 [ 0, %.lr.ph ], [ %53, %_ZNSt7__cxx1112basic_stringIcSt11char_traitsIcESaIcEEpLEc.exit13 ]
  %16 = tail call noundef i32 @_ZN2cv17QRCodeDecoderImpl9Bitstream4nextEi(ptr noundef nonnull align 8 dereferenceable(40) %3, i32 noundef 11)
  %17 = sdiv i32 %16, 45
  %18 = srem i32 %16, 45
  %19 = sext i32 %17 to i64
  %20 = getelementptr inbounds [45 x i8], ptr @_ZZN2cv17QRCodeDecoderImpl11decodeAlphaERNSt7__cxx1112basic_stringIcSt11char_traitsIcESaIcEEEE3map, i64 0, i64 %19
  %21 = load i8, ptr %20, align 1, !tbaa !57
  %22 = load i64, ptr %12, align 8, !tbaa !21
  %23 = add i64 %22, 1
  %24 = load ptr, ptr %1, align 8, !tbaa !15
  %25 = icmp eq ptr %24, %13
  br i1 %25, label %26, label %_ZNKSt7__cxx1112basic_stringIcSt11char_traitsIcESaIcEE8capacityEv.exit.i.i

26:                                               ; preds = %15
  %27 = icmp ult i64 %22, 16
  tail call void @llvm.assume(i1 %27)
  br label %_ZNKSt7__cxx1112basic_stringIcSt11char_traitsIcESaIcEE8capacityEv.exit.i.i

_ZNKSt7__cxx1112basic_stringIcSt11char_traitsIcESaIcEE8capacityEv.exit.i.i: ; preds = %26, %15
  %28 = load i64, ptr %13, align 8
  %29 = select i1 %25, i64 15, i64 %28
  %30 = icmp ugt i64 %23, %29
  br i1 %30, label %31, label %_ZNSt7__cxx1112basic_stringIcSt11char_traitsIcESaIcEEpLEc.exit

31:                                               ; preds = %_ZNKSt7__cxx1112basic_stringIcSt11char_traitsIcESaIcEE8capacityEv.exit.i.i
  tail call void @_ZNSt7__cxx1112basic_stringIcSt11char_traitsIcESaIcEE9_M_mutateEmmPKcm(ptr noundef nonnull align 8 dereferenceable(32) %1, i64 noundef %22, i64 noundef 0, ptr noundef null, i64 noundef 1)
  %.pre.i.i = load ptr, ptr %1, align 8, !tbaa !15
  br label %_ZNSt7__cxx1112basic_stringIcSt11char_traitsIcESaIcEEpLEc.exit

_ZNSt7__cxx1112basic_stringIcSt11char_traitsIcESaIcEEpLEc.exit: ; preds = %_ZNKSt7__cxx1112basic_stringIcSt11char_traitsIcESaIcEE8capacityEv.exit.i.i, %31
  %32 = phi ptr [ %.pre.i.i, %31 ], [ %24, %_ZNKSt7__cxx1112basic_stringIcSt11char_traitsIcESaIcEE8capacityEv.exit.i.i ]
  %33 = getelementptr inbounds nuw i8, ptr %32, i64 %22
  store i8 %21, ptr %33, align 1, !tbaa !57
  store i64 %23, ptr %12, align 8, !tbaa !21
  %34 = load ptr, ptr %1, align 8, !tbaa !15
  %35 = getelementptr inbounds nuw i8, ptr %34, i64 %23
  store i8 0, ptr %35, align 1, !tbaa !57
  %36 = sext i32 %18 to i64
  %37 = getelementptr inbounds [45 x i8], ptr @_ZZN2cv17QRCodeDecoderImpl11decodeAlphaERNSt7__cxx1112basic_stringIcSt11char_traitsIcESaIcEEEE3map, i64 0, i64 %36
  %38 = load i8, ptr %37, align 1, !tbaa !57
  %39 = load i64, ptr %12, align 8, !tbaa !21
  %40 = add i64 %39, 1
  %41 = load ptr, ptr %1, align 8, !tbaa !15
  %42 = icmp eq ptr %41, %13
  br i1 %42, label %43, label %_ZNKSt7__cxx1112basic_stringIcSt11char_traitsIcESaIcEE8capacityEv.exit.i.i11

43:                                               ; preds = %_ZNSt7__cxx1112basic_stringIcSt11char_traitsIcESaIcEEpLEc.exit
  %44 = icmp ult i64 %39, 16
  tail call void @llvm.assume(i1 %44)
  br label %_ZNKSt7__cxx1112basic_stringIcSt11char_traitsIcESaIcEE8capacityEv.exit.i.i11

_ZNKSt7__cxx1112basic_stringIcSt11char_traitsIcESaIcEE8capacityEv.exit.i.i11: ; preds = %43, %_ZNSt7__cxx1112basic_stringIcSt11char_traitsIcESaIcEEpLEc.exit
  %45 = load i64, ptr %13, align 8
  %46 = select i1 %42, i64 15, i64 %45
  %47 = icmp ugt i64 %40, %46
  br i1 %47, label %48, label %_ZNSt7__cxx1112basic_stringIcSt11char_traitsIcESaIcEEpLEc.exit13

48:                                               ; preds = %_ZNKSt7__cxx1112basic_stringIcSt11char_traitsIcESaIcEE8capacityEv.exit.i.i11
  tail call void @_ZNSt7__cxx1112basic_stringIcSt11char_traitsIcESaIcEE9_M_mutateEmmPKcm(ptr noundef nonnull align 8 dereferenceable(32) %1, i64 noundef %39, i64 noundef 0, ptr noundef null, i64 noundef 1)
  %.pre.i.i12 = load ptr, ptr %1, align 8, !tbaa !15
  br label %_ZNSt7__cxx1112basic_stringIcSt11char_traitsIcESaIcEEpLEc.exit13

_ZNSt7__cxx1112basic_stringIcSt11char_traitsIcESaIcEEpLEc.exit13: ; preds = %_ZNKSt7__cxx1112basic_stringIcSt11char_traitsIcESaIcEE8capacityEv.exit.i.i11, %48
  %49 = phi ptr [ %.pre.i.i12, %48 ], [ %41, %_ZNKSt7__cxx1112basic_stringIcSt11char_traitsIcESaIcEE8capacityEv.exit.i.i11 ]
  %50 = getelementptr inbounds nuw i8, ptr %49, i64 %39
  store i8 %38, ptr %50, align 1, !tbaa !57
  store i64 %40, ptr %12, align 8, !tbaa !21
  %51 = load ptr, ptr %1, align 8, !tbaa !15
  %52 = getelementptr inbounds nuw i8, ptr %51, i64 %40
  store i8 0, ptr %52, align 1, !tbaa !57
  %53 = add nuw nsw i32 %.017, 1
  %exitcond.not = icmp eq i32 %53, %10
  br i1 %exitcond.not, label %._crit_edge, label %15, !llvm.loop !335

54:                                               ; preds = %._crit_edge
  %55 = tail call noundef i32 @_ZN2cv17QRCodeDecoderImpl9Bitstream4nextEi(ptr noundef nonnull align 8 dereferenceable(40) %3, i32 noundef 6)
  %56 = sext i32 %55 to i64
  %57 = getelementptr inbounds [45 x i8], ptr @_ZZN2cv17QRCodeDecoderImpl11decodeAlphaERNSt7__cxx1112basic_stringIcSt11char_traitsIcESaIcEEEE3map, i64 0, i64 %56
  %58 = load i8, ptr %57, align 1, !tbaa !57
  %59 = getelementptr inbounds nuw i8, ptr %1, i64 8
  %60 = load i64, ptr %59, align 8, !tbaa !21
  %61 = add i64 %60, 1
  %62 = load ptr, ptr %1, align 8, !tbaa !15
  %63 = getelementptr inbounds nuw i8, ptr %1, i64 16
  %64 = icmp eq ptr %62, %63
  br i1 %64, label %65, label %_ZNKSt7__cxx1112basic_stringIcSt11char_traitsIcESaIcEE8capacityEv.exit.i.i14

65:                                               ; preds = %54
  %66 = icmp ult i64 %60, 16
  tail call void @llvm.assume(i1 %66)
  br label %_ZNKSt7__cxx1112basic_stringIcSt11char_traitsIcESaIcEE8capacityEv.exit.i.i14

_ZNKSt7__cxx1112basic_stringIcSt11char_traitsIcESaIcEE8capacityEv.exit.i.i14: ; preds = %65, %54
  %67 = load i64, ptr %63, align 8
  %68 = select i1 %64, i64 15, i64 %67
  %69 = icmp ugt i64 %61, %68
  br i1 %69, label %70, label %_ZNSt7__cxx1112basic_stringIcSt11char_traitsIcESaIcEEpLEc.exit16

70:                                               ; preds = %_ZNKSt7__cxx1112basic_stringIcSt11char_traitsIcESaIcEE8capacityEv.exit.i.i14
  tail call void @_ZNSt7__cxx1112basic_stringIcSt11char_traitsIcESaIcEE9_M_mutateEmmPKcm(ptr noundef nonnull align 8 dereferenceable(32) %1, i64 noundef %60, i64 noundef 0, ptr noundef null, i64 noundef 1)
  %.pre.i.i15 = load ptr, ptr %1, align 8, !tbaa !15
  br label %_ZNSt7__cxx1112basic_stringIcSt11char_traitsIcESaIcEEpLEc.exit16

_ZNSt7__cxx1112basic_stringIcSt11char_traitsIcESaIcEEpLEc.exit16: ; preds = %_ZNKSt7__cxx1112basic_stringIcSt11char_traitsIcESaIcEE8capacityEv.exit.i.i14, %70
  %71 = phi ptr [ %.pre.i.i15, %70 ], [ %62, %_ZNKSt7__cxx1112basic_stringIcSt11char_traitsIcESaIcEE8capacityEv.exit.i.i14 ]
  %72 = getelementptr inbounds nuw i8, ptr %71, i64 %60
  store i8 %58, ptr %72, align 1, !tbaa !57
  store i64 %61, ptr %59, align 8, !tbaa !21
  %73 = load ptr, ptr %1, align 8, !tbaa !15
  %74 = getelementptr inbounds nuw i8, ptr %73, i64 %61
  store i8 0, ptr %74, align 1, !tbaa !57
  br label %75

75:                                               ; preds = %_ZNSt7__cxx1112basic_stringIcSt11char_traitsIcESaIcEEpLEc.exit16, %._crit_edge
  ret void
}